target datalayout = "e-m:e-p270:32:32-p271:32:32-p272:64:64-i64:64-i128:128-f80:128-n8:16:32:64-S128"
target triple = "x86_64-pc-linux-gnu"

%struct.expert_field = type { i32, i32 }
%struct._header_field_info = type { ptr, ptr, i32, i32, ptr, i64, ptr, i32, i32, i32, i32, ptr }
%struct._packet_info = type { ptr, ptr, i32, i32, %struct.nstime_t, %struct.nstime_t, %struct.nstime_t, i8, ptr, ptr, ptr, ptr, %struct._address, %struct._address, %struct._address, %struct._address, %struct._address, %struct._address, i32, ptr, i8, [3 x i8], %struct.anon, i32, i32, i32, i32, ptr, i8, ptr, ptr, i16, i16, i32, i32, i16, i32, i32, ptr, ptr, ptr, i8, i8, i16, i16, i16, i32, i16, i16, ptr, ptr, ptr, ptr, ptr, i32, i32 }
%struct.nstime_t = type { i64, i32 }
%struct._address = type { i32, i32, ptr, ptr }
%struct.anon = type { i8, [3 x i8] }
%struct._asn1_ctx_t = type { i32, i32, i8, ptr, ptr, ptr, ptr, ptr, %struct.anon.0, %struct.anon.3, %struct.anon.4, ptr }
%struct.anon.0 = type { i32, i8, i8, i8, ptr, ptr, i32, i32, ptr, ptr, ptr, %union.anon }
%union.anon = type { %struct.anon.1 }
%struct.anon.1 = type { ptr }
%struct.anon.3 = type { ptr, ptr, ptr }
%struct.anon.4 = type { i32, i8, ptr, i32, i32, ptr, ptr, ptr, %union.anon.5 }
%union.anon.5 = type { %struct.anon.6 }
%struct.anon.6 = type { ptr }

@ei_per_undecoded = internal global %struct.expert_field zeroinitializer, align 4
@.str = private unnamed_addr constant [28 x i8] c"something unknown here [%s]\00", align 1
@.str.1 = private unnamed_addr constant [18 x i8] c"[UNKNOWN PER: %s]\00", align 1
@.str.20 = private unnamed_addr constant [18 x i8] c"unexpected length\00", align 1
@.str.24 = private unnamed_addr constant [29 x i8] c"epan/dissectors/packet-per.c\00", align 1
@.str.30 = private unnamed_addr constant [23 x i8] c"Unaligned OCTET STRING\00", align 1
@hf_per_object_identifier_length = internal global i32 0, align 4
@.str.171 = private unnamed_addr constant [55 x i8] c"%s:%u: failed assertion \22DISSECTOR_ASSERT_NOT_REACHED\22\00", align 1

; Function Attrs: null_pointer_is_valid sspstrong uwtable
define void @dissect_per_not_decoded_yet(ptr noundef %0, ptr noundef %1, ptr noundef %2, ptr noundef %3) #0 {
  %5 = alloca ptr, align 8
  %6 = alloca ptr, align 8
  %7 = alloca ptr, align 8
  %8 = alloca ptr, align 8
  store ptr %0, ptr %5, align 8
  store ptr %1, ptr %6, align 8
  store ptr %2, ptr %7, align 8
  store ptr %3, ptr %8, align 8
  %9 = load ptr, ptr %5, align 8
  %10 = load ptr, ptr %6, align 8
  %11 = load ptr, ptr %7, align 8
  %12 = load ptr, ptr %8, align 8
  %13 = call ptr (ptr, ptr, ptr, ptr, i32, i32, ptr, ...) @proto_tree_add_expert_format(ptr noundef %9, ptr noundef %10, ptr noundef @ei_per_undecoded, ptr noundef %11, i32 noundef 0, i32 noundef 0, ptr noundef @.str, ptr noundef %12)
  %14 = load ptr, ptr %6, align 8
  %15 = getelementptr inbounds nuw %struct._packet_info, ptr %14, i32 0, i32 1
  %16 = load ptr, ptr %15, align 8
  %17 = load ptr, ptr %8, align 8
  call void (ptr, i32, ptr, ...) @col_append_fstr(ptr noundef %16, i32 noundef 25, ptr noundef @.str.1, ptr noundef %17)
  call void @except_throw(i64 noundef 1, i64 noundef 3, ptr noundef null) #12
  unreachable
}

; Function Attrs: null_pointer_is_valid sspstrong uwtable
define internal i32 @dissect_per_any_oid(ptr noundef %0, i32 noundef %1, ptr noundef %2, ptr noundef %3, i32 noundef %4, ptr noundef %5, i1 noundef zeroext %6) #0 {
  %8 = alloca ptr, align 8
  %9 = alloca i32, align 4
  %10 = alloca ptr, align 8
  %11 = alloca ptr, align 8
  %12 = alloca i32, align 4
  %13 = alloca ptr, align 8
  %14 = alloca i8, align 1
  %15 = alloca i32, align 4
  %16 = alloca ptr, align 8
  %17 = alloca ptr, align 8
  %18 = alloca ptr, align 8
  store ptr %0, ptr %8, align 8
  store i32 %1, ptr %9, align 4
  store ptr %2, ptr %10, align 8
  store ptr %3, ptr %11, align 8
  store i32 %4, ptr %12, align 4
  store ptr %5, ptr %13, align 8
  %19 = zext i1 %6 to i8
  store i8 %19, ptr %14, align 1
  call void @llvm.lifetime.start.p0(i64 4, ptr %15) #11
  call void @llvm.lifetime.start.p0(i64 8, ptr %16) #11
  call void @llvm.lifetime.start.p0(i64 8, ptr %17) #11
  store ptr null, ptr %17, align 8
  call void @llvm.lifetime.start.p0(i64 8, ptr %18) #11
  %20 = load ptr, ptr %8, align 8
  %21 = load i32, ptr %9, align 4
  %22 = load ptr, ptr %10, align 8
  %23 = load ptr, ptr %11, align 8
  %24 = load i32, ptr @hf_per_object_identifier_length, align 4
  %25 = call i32 @dissect_per_length_determinant(ptr noundef %20, i32 noundef %21, ptr noundef %22, ptr noundef %23, i32 noundef %24, ptr noundef %15, ptr noundef null)
  store i32 %25, ptr %9, align 4
  %26 = load i32, ptr %15, align 4
  %27 = icmp eq i32 %26, 0
  br i1 %27, label %28, label %34

28:                                               ; preds = %7
  %29 = load ptr, ptr %11, align 8
  %30 = load ptr, ptr %10, align 8
  %31 = getelementptr inbounds nuw %struct._asn1_ctx_t, ptr %30, i32 0, i32 3
  %32 = load ptr, ptr %31, align 8
  %33 = load ptr, ptr %8, align 8
  call void @dissect_per_not_decoded_yet(ptr noundef %29, ptr noundef %32, ptr noundef %33, ptr noundef @.str.20)
  br label %34

34:                                               ; preds = %28, %7
  %35 = load ptr, ptr %10, align 8
  %36 = getelementptr inbounds nuw %struct._asn1_ctx_t, ptr %35, i32 0, i32 2
  %37 = load i8, ptr %36, align 8, !range !6, !noundef !7
  %38 = trunc i8 %37 to i1
  br i1 %38, label %39, label %48

39:                                               ; preds = %34
  %40 = load i32, ptr %9, align 4
  %41 = and i32 %40, 7
  %42 = icmp ne i32 %41, 0
  br i1 %42, label %43, label %47

43:                                               ; preds = %39
  %44 = load i32, ptr %9, align 4
  %45 = and i32 %44, -8
  %46 = add i32 %45, 8
  store i32 %46, ptr %9, align 4
  br label %47

47:                                               ; preds = %43, %39
  br label %48

48:                                               ; preds = %47, %34
  %49 = load ptr, ptr %8, align 8
  %50 = load i32, ptr %9, align 4
  %51 = load i32, ptr %15, align 4
  %52 = mul i32 %51, 8
  %53 = call ptr @tvb_new_octet_aligned(ptr noundef %49, i32 noundef %50, i32 noundef %52)
  store ptr %53, ptr %17, align 8
  %54 = load i32, ptr %9, align 4
  %55 = and i32 %54, 7
  %56 = icmp ne i32 %55, 0
  br i1 %56, label %57, label %62

57:                                               ; preds = %48
  %58 = load ptr, ptr %10, align 8
  %59 = getelementptr inbounds nuw %struct._asn1_ctx_t, ptr %58, i32 0, i32 3
  %60 = load ptr, ptr %59, align 8
  %61 = load ptr, ptr %17, align 8
  call void @add_new_data_source(ptr noundef %60, ptr noundef %61, ptr noundef @.str.30)
  br label %62

62:                                               ; preds = %57, %48
  %63 = load i32, ptr %12, align 4
  %64 = call ptr @proto_registrar_get_nth(i32 noundef %63)
  store ptr %64, ptr %18, align 8
  %65 = load i8, ptr %14, align 1, !range !6, !noundef !7
  %66 = trunc i8 %65 to i1
  br i1 %66, label %67, label %72

67:                                               ; preds = %62
  %68 = load ptr, ptr %18, align 8
  %69 = getelementptr inbounds nuw %struct._header_field_info, ptr %68, i32 0, i32 2
  %70 = load i32, ptr %69, align 8
  %71 = icmp eq i32 %70, 37
  br i1 %71, label %80, label %72

72:                                               ; preds = %67, %62
  %73 = load i8, ptr %14, align 1, !range !6, !noundef !7
  %74 = trunc i8 %73 to i1
  br i1 %74, label %75, label %88

75:                                               ; preds = %72
  %76 = load ptr, ptr %18, align 8
  %77 = getelementptr inbounds nuw %struct._header_field_info, ptr %76, i32 0, i32 2
  %78 = load i32, ptr %77, align 8
  %79 = icmp eq i32 %78, 41
  br i1 %79, label %80, label %88

80:                                               ; preds = %75, %67
  %81 = load ptr, ptr %11, align 8
  %82 = load i32, ptr %12, align 4
  %83 = load ptr, ptr %17, align 8
  %84 = load i32, ptr %15, align 4
  %85 = call ptr @proto_tree_add_item(ptr noundef %81, i32 noundef %82, ptr noundef %83, i32 noundef 0, i32 noundef %84, i32 noundef 0)
  %86 = load ptr, ptr %10, align 8
  %87 = getelementptr inbounds nuw %struct._asn1_ctx_t, ptr %86, i32 0, i32 4
  store ptr %85, ptr %87, align 8
  br label %139

88:                                               ; preds = %75, %72
  %89 = load ptr, ptr %18, align 8
  %90 = getelementptr inbounds nuw %struct._header_field_info, ptr %89, i32 0, i32 2
  %91 = load i32, ptr %90, align 8
  %92 = icmp eq i32 %91, 26
  br i1 %92, label %118, label %93

93:                                               ; preds = %88
  %94 = load ptr, ptr %18, align 8
  %95 = getelementptr inbounds nuw %struct._header_field_info, ptr %94, i32 0, i32 2
  %96 = load i32, ptr %95, align 8
  %97 = icmp eq i32 %96, 27
  br i1 %97, label %118, label %98

98:                                               ; preds = %93
  %99 = load ptr, ptr %18, align 8
  %100 = getelementptr inbounds nuw %struct._header_field_info, ptr %99, i32 0, i32 2
  %101 = load i32, ptr %100, align 8
  %102 = icmp eq i32 %101, 43
  br i1 %102, label %118, label %103

103:                                              ; preds = %98
  %104 = load ptr, ptr %18, align 8
  %105 = getelementptr inbounds nuw %struct._header_field_info, ptr %104, i32 0, i32 2
  %106 = load i32, ptr %105, align 8
  %107 = icmp eq i32 %106, 45
  br i1 %107, label %118, label %108

108:                                              ; preds = %103
  %109 = load ptr, ptr %18, align 8
  %110 = getelementptr inbounds nuw %struct._header_field_info, ptr %109, i32 0, i32 2
  %111 = load i32, ptr %110, align 8
  %112 = icmp eq i32 %111, 28
  br i1 %112, label %118, label %113

113:                                              ; preds = %108
  %114 = load ptr, ptr %18, align 8
  %115 = getelementptr inbounds nuw %struct._header_field_info, ptr %114, i32 0, i32 2
  %116 = load i32, ptr %115, align 8
  %117 = icmp eq i32 %116, 39
  br i1 %117, label %118, label %137

118:                                              ; preds = %113, %108, %103, %98, %93, %88
  %119 = load ptr, ptr %10, align 8
  %120 = getelementptr inbounds nuw %struct._asn1_ctx_t, ptr %119, i32 0, i32 3
  %121 = load ptr, ptr %120, align 8
  %122 = getelementptr inbounds nuw %struct._packet_info, ptr %121, i32 0, i32 51
  %123 = load ptr, ptr %122, align 8
  %124 = load ptr, ptr %17, align 8
  %125 = load i32, ptr %15, align 4
  %126 = call ptr @tvb_get_ptr(ptr noundef %124, i32 noundef 0, i32 noundef %125)
  %127 = load i32, ptr %15, align 4
  %128 = call ptr @oid_encoded2string(ptr noundef %123, ptr noundef %126, i32 noundef %127)
  store ptr %128, ptr %16, align 8
  %129 = load ptr, ptr %11, align 8
  %130 = load i32, ptr %12, align 4
  %131 = load ptr, ptr %17, align 8
  %132 = load i32, ptr %15, align 4
  %133 = load ptr, ptr %16, align 8
  %134 = call ptr @proto_tree_add_string(ptr noundef %129, i32 noundef %130, ptr noundef %131, i32 noundef 0, i32 noundef %132, ptr noundef %133)
  %135 = load ptr, ptr %10, align 8
  %136 = getelementptr inbounds nuw %struct._asn1_ctx_t, ptr %135, i32 0, i32 4
  store ptr %134, ptr %136, align 8
  br label %138

137:                                              ; preds = %113
  call void (ptr, ...) @proto_report_dissector_bug(ptr noundef @.str.171, ptr noundef @.str.24, i32 noundef 1097) #12
  unreachable

138:                                              ; preds = %118
  br label %139

139:                                              ; preds = %138, %80
  %140 = load ptr, ptr %13, align 8
  %141 = icmp ne ptr %140, null
  br i1 %141, label %142, label %145

142:                                              ; preds = %139
  %143 = load ptr, ptr %17, align 8
  %144 = load ptr, ptr %13, align 8
  store ptr %143, ptr %144, align 8
  br label %145

145:                                              ; preds = %142, %139
  %146 = load i32, ptr %15, align 4
  %147 = mul i32 8, %146
  %148 = load i32, ptr %9, align 4
  %149 = add i32 %148, %147
  store i32 %149, ptr %9, align 4
  %150 = load i32, ptr %9, align 4
  call void @llvm.lifetime.end.p0(i64 8, ptr %18) #11
  call void @llvm.lifetime.end.p0(i64 8, ptr %17) #11
  call void @llvm.lifetime.end.p0(i64 8, ptr %16) #11
  call void @llvm.lifetime.end.p0(i64 4, ptr %15) #11
  ret i32 %150
}