; Function Attrs: null_pointer_is_valid sspstrong uwtable
define internal fastcc i32 @dissect_per_any_oid(ptr noundef %0, i32 noundef %1, ptr noundef captures(none) %2, ptr noundef %3, i32 noundef %4, ptr noundef writeonly captures(address_is_null) %5, i1 noundef zeroext %6) unnamed_addr #0 {
  %8 = alloca i32, align 4
  call void @llvm.lifetime.start.p0(i64 4, ptr nonnull %8) #13
  %9 = load i32, ptr @hf_per_object_identifier_length, align 4
  %10 = call i32 @dissect_per_length_determinant(ptr noundef %0, i32 noundef %1, ptr noundef %2, ptr noundef %3, i32 noundef %9, ptr noundef nonnull %8, ptr noundef null)
  %11 = load i32, ptr %8, align 4
  %12 = icmp eq i32 %11, 0
  br i1 %12, label %13, label %19

13:                                               ; preds = %7
  %14 = getelementptr inbounds nuw i8, ptr %2, i64 16
  %15 = load ptr, ptr %14, align 8
  %16 = call ptr (ptr, ptr, ptr, ptr, i32, i32, ptr, ...) @proto_tree_add_expert_format(ptr noundef %3, ptr noundef %15, ptr noundef nonnull @ei_per_undecoded, ptr noundef %0, i32 noundef 0, i32 noundef 0, ptr noundef nonnull @.str, ptr noundef nonnull @.str.20)
  %17 = getelementptr inbounds nuw i8, ptr %15, i64 8
  %18 = load ptr, ptr %17, align 8
  call void (ptr, i32, ptr, ...) @col_append_fstr(ptr noundef %18, i32 noundef 25, ptr noundef nonnull @.str.1, ptr noundef nonnull @.str.20)
  call void @except_throw(i64 noundef 1, i64 noundef 3, ptr noundef null) #12
  unreachable

19:                                               ; preds = %7
  %20 = getelementptr inbounds nuw i8, ptr %2, i64 8
  %21 = load i8, ptr %20, align 8, !range !6, !noundef !7
  %22 = trunc nuw i8 %21 to i1
  %23 = and i32 %10, 7
  %.not = icmp ne i32 %23, 0
  %or.cond.not = select i1 %22, i1 %.not, i1 false
  %24 = and i32 %10, -8
  %25 = add i32 %24, 8
  %.0 = select i1 %or.cond.not, i32 %25, i32 %10
  %26 = shl i32 %11, 3
  %27 = call ptr @tvb_new_octet_aligned(ptr noundef %0, i32 noundef %.0, i32 noundef %26)
  %28 = and i32 %.0, 7
  %.not43 = icmp eq i32 %28, 0
  br i1 %.not43, label %32, label %29

29:                                               ; preds = %19
  %30 = getelementptr inbounds nuw i8, ptr %2, i64 16
  %31 = load ptr, ptr %30, align 8
  call void @add_new_data_source(ptr noundef %31, ptr noundef %27, ptr noundef nonnull @.str.30)
  br label %32

32:                                               ; preds = %29, %19
  %33 = call ptr @proto_registrar_get_nth(i32 noundef %4)
  %34 = getelementptr inbounds nuw i8, ptr %33, i64 16
  %35 = load i32, ptr %34, align 8
  br i1 %6, label %36, label %.critedge

36:                                               ; preds = %32
  switch i32 %35, label %51 [
    i32 37, label %37
    i32 41, label %37
    i32 26, label %40
    i32 27, label %40
    i32 43, label %40
    i32 45, label %40
    i32 28, label %40
    i32 39, label %40
  ]

37:                                               ; preds = %36, %36
  %38 = load i32, ptr %8, align 4
  %39 = call ptr @proto_tree_add_item(ptr noundef %3, i32 noundef %4, ptr noundef %27, i32 noundef 0, i32 noundef %38, i32 noundef 0)
  br label %52

.critedge:                                        ; preds = %32
  switch i32 %35, label %51 [
    i32 26, label %40
    i32 27, label %40
    i32 43, label %40
    i32 45, label %40
    i32 28, label %40
    i32 39, label %40
  ]

40:                                               ; preds = %36, %36, %36, %36, %36, %36, %.critedge, %.critedge, %.critedge, %.critedge, %.critedge, %.critedge
  %41 = getelementptr inbounds nuw i8, ptr %2, i64 16
  %42 = load ptr, ptr %41, align 8
  %43 = getelementptr inbounds nuw i8, ptr %42, i64 408
  %44 = load ptr, ptr %43, align 8
  %45 = load i32, ptr %8, align 4
  %46 = call ptr @tvb_get_ptr(ptr noundef %27, i32 noundef 0, i32 noundef %45)
  %47 = load i32, ptr %8, align 4
  %48 = call ptr @oid_encoded2string(ptr noundef %44, ptr noundef %46, i32 noundef %47)
  %49 = load i32, ptr %8, align 4
  %50 = call ptr @proto_tree_add_string(ptr noundef %3, i32 noundef %4, ptr noundef %27, i32 noundef 0, i32 noundef %49, ptr noundef %48)
  br label %52

51:                                               ; preds = %36, %.critedge
  call void (ptr, ...) @proto_report_dissector_bug(ptr noundef nonnull @.str.171, ptr noundef nonnull @.str.24, i32 noundef 1097) #12
  unreachable

52:                                               ; preds = %40, %37
  %.sink = phi ptr [ %50, %40 ], [ %39, %37 ]
  %53 = getelementptr inbounds nuw i8, ptr %2, i64 24
  store ptr %.sink, ptr %53, align 8
  %.not44 = icmp eq ptr %5, null
  br i1 %.not44, label %55, label %54

54:                                               ; preds = %52
  store ptr %27, ptr %5, align 8
  br label %55

55:                                               ; preds = %54, %52
  %56 = load i32, ptr %8, align 4
  %57 = shl i32 %56, 3
  %58 = add i32 %57, %.0
  call void @llvm.lifetime.end.p0(i64 4, ptr nonnull %8) #13
  ret i32 %58
}